target datalayout = "e-m:e-p270:32:32-p271:32:32-p272:64:64-i64:64-i128:128-f80:128-n8:16:32:64-S128"
target triple = "x86_64-pc-linux-gnu"

%"class.cxx20::expected" = type { %"struct.cxx20::detail::expected_move_assign_base" }
%"struct.cxx20::detail::expected_move_assign_base" = type { %"struct.cxx20::detail::expected_copy_assign_base" }
%"struct.cxx20::detail::expected_copy_assign_base" = type { %"struct.cxx20::detail::expected_move_base" }
%"struct.cxx20::detail::expected_move_base" = type { %"struct.cxx20::detail::expected_copy_base" }
%"struct.cxx20::detail::expected_copy_base" = type { %"struct.cxx20::detail::expected_operations_base" }
%"struct.cxx20::detail::expected_operations_base" = type { %"struct.cxx20::detail::expected_view_base" }
%"struct.cxx20::detail::expected_view_base" = type { %"struct.cxx20::detail::expected_storage_base" }
%"struct.cxx20::detail::expected_storage_base" = type { i8, %union.anon }
%union.anon = type { %"class.cxx20::unexpected" }
%"class.cxx20::unexpected" = type { %"class.WasmEdge::ErrCode" }
%"class.WasmEdge::ErrCode" = type { %"union.WasmEdge::ErrCode::InnerT" }
%"union.WasmEdge::ErrCode::InnerT" = type { i32 }
%"struct.WasmEdge::RefVariant" = type { <2 x i64> }
%"class.WasmEdge::Variant" = type { %"union.WasmEdge::VariadicUnion" }
%"union.WasmEdge::VariadicUnion" = type { %"union.WasmEdge::VariadicUnion.37" }
%"union.WasmEdge::VariadicUnion.37" = type { %"union.WasmEdge::VariadicUnion.38" }
%"union.WasmEdge::VariadicUnion.38" = type { %"union.WasmEdge::VariadicUnion.39" }
%"union.WasmEdge::VariadicUnion.39" = type { %"union.WasmEdge::VariadicUnion.40" }
%"union.WasmEdge::VariadicUnion.40" = type { %"union.WasmEdge::VariadicUnion.41" }
%"union.WasmEdge::VariadicUnion.41" = type { %"union.WasmEdge::VariadicUnion.42" }
%"union.WasmEdge::VariadicUnion.42" = type { i128 }
%"struct.std::array" = type { [2 x i64] }

; Function Attrs: mustprogress nounwind uwtable
define linkonce_odr hidden noundef nonnull align 16 dereferenceable(16) ptr @_ZNR8WasmEdge13VariadicUnionIJNS_10RefVariantENS_10StrVariantEEE3getIS1_EERT_v(ptr noundef nonnull align 16 dereferenceable(16) %0) #0 comdat align 2 {
  %2 = alloca ptr, align 8
  store ptr %0, ptr %2, align 8
  %3 = load ptr, ptr %2, align 8
  ret ptr %3
}

; Function Attrs: mustprogress nounwind uwtable
define linkonce_odr hidden noundef nonnull align 16 dereferenceable(16) ptr @_ZNR8WasmEdge13VariadicUnionIJDv2_dNS_10RefVariantENS_10StrVariantEEE3getIS2_EERT_v(ptr noundef nonnull align 16 dereferenceable(16) %0) #0 comdat align 2 {
  %2 = alloca ptr, align 8
  store ptr %0, ptr %2, align 8
  %3 = load ptr, ptr %2, align 8
  %4 = call noundef nonnull align 16 dereferenceable(16) ptr @_ZNR8WasmEdge13VariadicUnionIJNS_10RefVariantENS_10StrVariantEEE3getIS1_EERT_v(ptr noundef nonnull align 16 dereferenceable(16) %3) #15
  ret ptr %4
}

; Function Attrs: mustprogress nounwind uwtable
define linkonce_odr hidden noundef nonnull align 16 dereferenceable(16) ptr @_ZNR8WasmEdge13VariadicUnionIJDv4_fDv2_dNS_10RefVariantENS_10StrVariantEEE3getIS3_EERT_v(ptr noundef nonnull align 16 dereferenceable(16) %0) #0 comdat align 2 {
  %2 = alloca ptr, align 8
  store ptr %0, ptr %2, align 8
  %3 = load ptr, ptr %2, align 8
  %4 = call noundef nonnull align 16 dereferenceable(16) ptr @_ZNR8WasmEdge13VariadicUnionIJDv2_dNS_10RefVariantENS_10StrVariantEEE3getIS2_EERT_v(ptr noundef nonnull align 16 dereferenceable(16) %3) #15
  ret ptr %4
}

; Function Attrs: mustprogress nounwind uwtable
define linkonce_odr hidden noundef nonnull align 16 dereferenceable(16) ptr @_ZNR8WasmEdge13VariadicUnionIJDv16_aDv4_fDv2_dNS_10RefVariantENS_10StrVariantEEE3getIS4_EERT_v(ptr noundef nonnull align 16 dereferenceable(16) %0) #0 comdat align 2 {
  %2 = alloca ptr, align 8
  store ptr %0, ptr %2, align 8
  %3 = load ptr, ptr %2, align 8
  %4 = call noundef nonnull align 16 dereferenceable(16) ptr @_ZNR8WasmEdge13VariadicUnionIJDv4_fDv2_dNS_10RefVariantENS_10StrVariantEEE3getIS3_EERT_v(ptr noundef nonnull align 16 dereferenceable(16) %3) #15
  ret ptr %4
}

; Function Attrs: mustprogress nounwind uwtable
define linkonce_odr hidden noundef nonnull align 16 dereferenceable(16) ptr @_ZNR8WasmEdge13VariadicUnionIJDv16_hDv16_aDv4_fDv2_dNS_10RefVariantENS_10StrVariantEEE3getIS5_EERT_v(ptr noundef nonnull align 16 dereferenceable(16) %0) #0 comdat align 2 {
  %2 = alloca ptr, align 8
  store ptr %0, ptr %2, align 8
  %3 = load ptr, ptr %2, align 8
  %4 = call noundef nonnull align 16 dereferenceable(16) ptr @_ZNR8WasmEdge13VariadicUnionIJDv16_aDv4_fDv2_dNS_10RefVariantENS_10StrVariantEEE3getIS4_EERT_v(ptr noundef nonnull align 16 dereferenceable(16) %3) #15
  ret ptr %4
}

; Function Attrs: mustprogress nounwind uwtable
define linkonce_odr hidden noundef nonnull align 16 dereferenceable(16) ptr @_ZNR8WasmEdge13VariadicUnionIJDv8_sDv16_hDv16_aDv4_fDv2_dNS_10RefVariantENS_10StrVariantEEE3getIS6_EERT_v(ptr noundef nonnull align 16 dereferenceable(16) %0) #0 comdat align 2 {
  %2 = alloca ptr, align 8
  store ptr %0, ptr %2, align 8
  %3 = load ptr, ptr %2, align 8
  %4 = call noundef nonnull align 16 dereferenceable(16) ptr @_ZNR8WasmEdge13VariadicUnionIJDv16_hDv16_aDv4_fDv2_dNS_10RefVariantENS_10StrVariantEEE3getIS5_EERT_v(ptr noundef nonnull align 16 dereferenceable(16) %3) #15
  ret ptr %4
}

; Function Attrs: mustprogress nounwind uwtable
define linkonce_odr hidden noundef nonnull align 16 dereferenceable(16) ptr @_ZNR8WasmEdge13VariadicUnionIJDv8_tDv8_sDv16_hDv16_aDv4_fDv2_dNS_10RefVariantENS_10StrVariantEEE3getIS7_EERT_v(ptr noundef nonnull align 16 dereferenceable(16) %0) #0 comdat align 2 {
  %2 = alloca ptr, align 8
  store ptr %0, ptr %2, align 8
  %3 = load ptr, ptr %2, align 8
  %4 = call noundef nonnull align 16 dereferenceable(16) ptr @_ZNR8WasmEdge13VariadicUnionIJDv8_sDv16_hDv16_aDv4_fDv2_dNS_10RefVariantENS_10StrVariantEEE3getIS6_EERT_v(ptr noundef nonnull align 16 dereferenceable(16) %3) #15
  ret ptr %4
}

; Function Attrs: mustprogress nounwind uwtable
define linkonce_odr hidden noundef nonnull align 16 dereferenceable(16) ptr @_ZNR8WasmEdge13VariadicUnionIJDv4_iDv8_tDv8_sDv16_hDv16_aDv4_fDv2_dNS_10RefVariantENS_10StrVariantEEE3getIS8_EERT_v(ptr noundef nonnull align 16 dereferenceable(16) %0) #0 comdat align 2 {
  %2 = alloca ptr, align 8
  store ptr %0, ptr %2, align 8
  %3 = load ptr, ptr %2, align 8
  %4 = call noundef nonnull align 16 dereferenceable(16) ptr @_ZNR8WasmEdge13VariadicUnionIJDv8_tDv8_sDv16_hDv16_aDv4_fDv2_dNS_10RefVariantENS_10StrVariantEEE3getIS7_EERT_v(ptr noundef nonnull align 16 dereferenceable(16) %3) #15
  ret ptr %4
}

; Function Attrs: mustprogress nounwind uwtable
define linkonce_odr hidden noundef nonnull align 16 dereferenceable(16) ptr @_ZNR8WasmEdge13VariadicUnionIJDv4_jDv4_iDv8_tDv8_sDv16_hDv16_aDv4_fDv2_dNS_10RefVariantENS_10StrVariantEEE3getIS9_EERT_v(ptr noundef nonnull align 16 dereferenceable(16) %0) #0 comdat align 2 {
  %2 = alloca ptr, align 8
  store ptr %0, ptr %2, align 8
  %3 = load ptr, ptr %2, align 8
  %4 = call noundef nonnull align 16 dereferenceable(16) ptr @_ZNR8WasmEdge13VariadicUnionIJDv4_iDv8_tDv8_sDv16_hDv16_aDv4_fDv2_dNS_10RefVariantENS_10StrVariantEEE3getIS8_EERT_v(ptr noundef nonnull align 16 dereferenceable(16) %3) #15
  ret ptr %4
}

; Function Attrs: mustprogress nounwind uwtable
define linkonce_odr hidden noundef nonnull align 16 dereferenceable(16) ptr @_ZNR8WasmEdge13VariadicUnionIJDv2_lDv4_jDv4_iDv8_tDv8_sDv16_hDv16_aDv4_fDv2_dNS_10RefVariantENS_10StrVariantEEE3getISA_EERT_v(ptr noundef nonnull align 16 dereferenceable(16) %0) #0 comdat align 2 {
  %2 = alloca ptr, align 8
  store ptr %0, ptr %2, align 8
  %3 = load ptr, ptr %2, align 8
  %4 = call noundef nonnull align 16 dereferenceable(16) ptr @_ZNR8WasmEdge13VariadicUnionIJDv4_jDv4_iDv8_tDv8_sDv16_hDv16_aDv4_fDv2_dNS_10RefVariantENS_10StrVariantEEE3getIS9_EERT_v(ptr noundef nonnull align 16 dereferenceable(16) %3) #15
  ret ptr %4
}

; Function Attrs: mustprogress nounwind uwtable
define linkonce_odr hidden noundef nonnull align 16 dereferenceable(16) ptr @_ZNR8WasmEdge13VariadicUnionIJDv2_mDv2_lDv4_jDv4_iDv8_tDv8_sDv16_hDv16_aDv4_fDv2_dNS_10RefVariantENS_10StrVariantEEE3getISB_EERT_v(ptr noundef nonnull align 16 dereferenceable(16) %0) #0 comdat align 2 {
  %2 = alloca ptr, align 8
  store ptr %0, ptr %2, align 8
  %3 = load ptr, ptr %2, align 8
  %4 = call noundef nonnull align 16 dereferenceable(16) ptr @_ZNR8WasmEdge13VariadicUnionIJDv2_lDv4_jDv4_iDv8_tDv8_sDv16_hDv16_aDv4_fDv2_dNS_10RefVariantENS_10StrVariantEEE3getISA_EERT_v(ptr noundef nonnull align 16 dereferenceable(16) %3) #15
  ret ptr %4
}

; Function Attrs: mustprogress nounwind uwtable
define linkonce_odr hidden noundef nonnull align 16 dereferenceable(16) ptr @_ZNR8WasmEdge13VariadicUnionIJnDv2_mDv2_lDv4_jDv4_iDv8_tDv8_sDv16_hDv16_aDv4_fDv2_dNS_10RefVariantENS_10StrVariantEEE3getISB_EERT_v(ptr noundef nonnull align 16 dereferenceable(16) %0) #0 comdat align 2 {
  %2 = alloca ptr, align 8
  store ptr %0, ptr %2, align 8
  %3 = load ptr, ptr %2, align 8
  %4 = call noundef nonnull align 16 dereferenceable(16) ptr @_ZNR8WasmEdge13VariadicUnionIJDv2_mDv2_lDv4_jDv4_iDv8_tDv8_sDv16_hDv16_aDv4_fDv2_dNS_10RefVariantENS_10StrVariantEEE3getISB_EERT_v(ptr noundef nonnull align 16 dereferenceable(16) %3) #15
  ret ptr %4
}

; Function Attrs: mustprogress nounwind uwtable
define linkonce_odr hidden void @_ZN5cxx206detail21expected_storage_baseIvN8WasmEdge7ErrCodeELb0ELb1EEC2Ev(ptr noundef nonnull align 4 dereferenceable(8) %0) unnamed_addr #0 comdat align 2 {
  %2 = alloca ptr, align 8
  store ptr %0, ptr %2, align 8
  %3 = load ptr, ptr %2, align 8
  %4 = getelementptr inbounds %"struct.cxx20::detail::expected_storage_base", ptr %3, i32 0, i32 0
  store i8 1, ptr %4, align 4
  %5 = getelementptr inbounds %"struct.cxx20::detail::expected_storage_base", ptr %3, i32 0, i32 1
  store i8 0, ptr %5, align 4
  ret void
}

; Function Attrs: mustprogress nounwind uwtable
define linkonce_odr hidden noundef nonnull align 16 dereferenceable(16) ptr @_ZNR8WasmEdge13VariadicUnionIJonDv2_mDv2_lDv4_jDv4_iDv8_tDv8_sDv16_hDv16_aDv4_fDv2_dNS_10RefVariantENS_10StrVariantEEE3getISB_EERT_v(ptr noundef nonnull align 16 dereferenceable(16) %0) #0 comdat align 2 {
  %2 = alloca ptr, align 8
  store ptr %0, ptr %2, align 8
  %3 = load ptr, ptr %2, align 8
  %4 = call noundef nonnull align 16 dereferenceable(16) ptr @_ZNR8WasmEdge13VariadicUnionIJnDv2_mDv2_lDv4_jDv4_iDv8_tDv8_sDv16_hDv16_aDv4_fDv2_dNS_10RefVariantENS_10StrVariantEEE3getISB_EERT_v(ptr noundef nonnull align 16 dereferenceable(16) %3) #15
  ret ptr %4
}

; Function Attrs: mustprogress nounwind uwtable
define linkonce_odr hidden void @_ZN5cxx206detail18expected_view_baseIvN8WasmEdge7ErrCodeEEC2Ev(ptr noundef nonnull align 4 dereferenceable(8) %0) unnamed_addr #0 comdat align 2 {
  %2 = alloca ptr, align 8
  store ptr %0, ptr %2, align 8
  %3 = load ptr, ptr %2, align 8
  call void @_ZN5cxx206detail21expected_storage_baseIvN8WasmEdge7ErrCodeELb0ELb1EEC2Ev(ptr noundef nonnull align 4 dereferenceable(8) %3) #15
  ret void
}

; Function Attrs: mustprogress nounwind uwtable
define linkonce_odr hidden noundef nonnull align 16 dereferenceable(16) ptr @_ZNR8WasmEdge13VariadicUnionIJdonDv2_mDv2_lDv4_jDv4_iDv8_tDv8_sDv16_hDv16_aDv4_fDv2_dNS_10RefVariantENS_10StrVariantEEE3getISB_EERT_v(ptr noundef nonnull align 16 dereferenceable(16) %0) #0 comdat align 2 {
  %2 = alloca ptr, align 8
  store ptr %0, ptr %2, align 8
  %3 = load ptr, ptr %2, align 8
  %4 = call noundef nonnull align 16 dereferenceable(16) ptr @_ZNR8WasmEdge13VariadicUnionIJonDv2_mDv2_lDv4_jDv4_iDv8_tDv8_sDv16_hDv16_aDv4_fDv2_dNS_10RefVariantENS_10StrVariantEEE3getISB_EERT_v(ptr noundef nonnull align 16 dereferenceable(16) %3) #15
  ret ptr %4
}

; Function Attrs: mustprogress nounwind uwtable
define linkonce_odr hidden void @_ZN5cxx206detail24expected_operations_baseIvN8WasmEdge7ErrCodeEEC2Ev(ptr noundef nonnull align 4 dereferenceable(8) %0) unnamed_addr #0 comdat align 2 {
  %2 = alloca ptr, align 8
  store ptr %0, ptr %2, align 8
  %3 = load ptr, ptr %2, align 8
  call void @_ZN5cxx206detail18expected_view_baseIvN8WasmEdge7ErrCodeEEC2Ev(ptr noundef nonnull align 4 dereferenceable(8) %3) #15
  ret void
}

; Function Attrs: mustprogress nounwind uwtable
define linkonce_odr hidden noundef nonnull align 16 dereferenceable(16) ptr @_ZNR8WasmEdge13VariadicUnionIJfdonDv2_mDv2_lDv4_jDv4_iDv8_tDv8_sDv16_hDv16_aDv4_fDv2_dNS_10RefVariantENS_10StrVariantEEE3getISB_EERT_v(ptr noundef nonnull align 16 dereferenceable(16) %0) #0 comdat align 2 {
  %2 = alloca ptr, align 8
  store ptr %0, ptr %2, align 8
  %3 = load ptr, ptr %2, align 8
  %4 = call noundef nonnull align 16 dereferenceable(16) ptr @_ZNR8WasmEdge13VariadicUnionIJdonDv2_mDv2_lDv4_jDv4_iDv8_tDv8_sDv16_hDv16_aDv4_fDv2_dNS_10RefVariantENS_10StrVariantEEE3getISB_EERT_v(ptr noundef nonnull align 16 dereferenceable(16) %3) #15
  ret ptr %4
}

; Function Attrs: mustprogress nounwind uwtable
define linkonce_odr hidden void @_ZN5cxx206detail18expected_copy_baseIvN8WasmEdge7ErrCodeELb0EEC2Ev(ptr noundef nonnull align 4 dereferenceable(8) %0) unnamed_addr #0 comdat align 2 {
  %2 = alloca ptr, align 8
  store ptr %0, ptr %2, align 8
  %3 = load ptr, ptr %2, align 8
  call void @_ZN5cxx206detail24expected_operations_baseIvN8WasmEdge7ErrCodeEEC2Ev(ptr noundef nonnull align 4 dereferenceable(8) %3) #15
  ret void
}

; Function Attrs: mustprogress nounwind uwtable
define linkonce_odr hidden noundef nonnull align 16 dereferenceable(16) ptr @_ZNR8WasmEdge13VariadicUnionIJlfdonDv2_mDv2_lDv4_jDv4_iDv8_tDv8_sDv16_hDv16_aDv4_fDv2_dNS_10RefVariantENS_10StrVariantEEE3getISB_EERT_v(ptr noundef nonnull align 16 dereferenceable(16) %0) #0 comdat align 2 {
  %2 = alloca ptr, align 8
  store ptr %0, ptr %2, align 8
  %3 = load ptr, ptr %2, align 8
  %4 = call noundef nonnull align 16 dereferenceable(16) ptr @_ZNR8WasmEdge13VariadicUnionIJfdonDv2_mDv2_lDv4_jDv4_iDv8_tDv8_sDv16_hDv16_aDv4_fDv2_dNS_10RefVariantENS_10StrVariantEEE3getISB_EERT_v(ptr noundef nonnull align 16 dereferenceable(16) %3) #15
  ret ptr %4
}

; Function Attrs: mustprogress nounwind uwtable
define linkonce_odr hidden void @_ZN5cxx206detail18expected_move_baseIvN8WasmEdge7ErrCodeELb0EEC2Ev(ptr noundef nonnull align 4 dereferenceable(8) %0) unnamed_addr #0 comdat align 2 {
  %2 = alloca ptr, align 8
  store ptr %0, ptr %2, align 8
  %3 = load ptr, ptr %2, align 8
  call void @_ZN5cxx206detail18expected_copy_baseIvN8WasmEdge7ErrCodeELb0EEC2Ev(ptr noundef nonnull align 4 dereferenceable(8) %3) #15
  ret void
}

; Function Attrs: mustprogress nounwind uwtable
define linkonce_odr hidden noundef nonnull align 8 dereferenceable(8) ptr @_ZNSt14__array_traitsImLm2EE6_S_refERA2_Kmm(ptr noundef nonnull align 8 dereferenceable(16) %0, i64 noundef %1) #0 comdat align 2 {
  %3 = alloca ptr, align 8
  %4 = alloca i64, align 8
  store ptr %0, ptr %3, align 8
  store i64 %1, ptr %4, align 8
  %5 = load ptr, ptr %3, align 8
  %6 = load i64, ptr %4, align 8
  %7 = getelementptr inbounds [2 x i64], ptr %5, i64 0, i64 %6
  ret ptr %7
}

; Function Attrs: mustprogress nounwind uwtable
define linkonce_odr hidden noundef nonnull align 16 dereferenceable(16) ptr @_ZNR8WasmEdge13VariadicUnionIJmlfdonDv2_mDv2_lDv4_jDv4_iDv8_tDv8_sDv16_hDv16_aDv4_fDv2_dNS_10RefVariantENS_10StrVariantEEE3getISB_EERT_v(ptr noundef nonnull align 16 dereferenceable(16) %0) #0 comdat align 2 {
  %2 = alloca ptr, align 8
  store ptr %0, ptr %2, align 8
  %3 = load ptr, ptr %2, align 8
  %4 = call noundef nonnull align 16 dereferenceable(16) ptr @_ZNR8WasmEdge13VariadicUnionIJlfdonDv2_mDv2_lDv4_jDv4_iDv8_tDv8_sDv16_hDv16_aDv4_fDv2_dNS_10RefVariantENS_10StrVariantEEE3getISB_EERT_v(ptr noundef nonnull align 16 dereferenceable(16) %3) #15
  ret ptr %4
}

; Function Attrs: mustprogress nounwind uwtable
define linkonce_odr hidden void @_ZN5cxx206detail25expected_copy_assign_baseIvN8WasmEdge7ErrCodeELb0EEC2Ev(ptr noundef nonnull align 4 dereferenceable(8) %0) unnamed_addr #0 comdat align 2 {
  %2 = alloca ptr, align 8
  store ptr %0, ptr %2, align 8
  %3 = load ptr, ptr %2, align 8
  call void @_ZN5cxx206detail18expected_move_baseIvN8WasmEdge7ErrCodeELb0EEC2Ev(ptr noundef nonnull align 4 dereferenceable(8) %3) #15
  ret void
}

; Function Attrs: mustprogress nounwind uwtable
define linkonce_odr noundef ptr @_ZSt7launderIjEPT_S1_(ptr noundef %0) #0 comdat {
  %2 = alloca ptr, align 8
  store ptr %0, ptr %2, align 8
  %3 = load ptr, ptr %2, align 8
  ret ptr %3
}

; Function Attrs: mustprogress nounwind uwtable
define linkonce_odr hidden noundef nonnull align 8 dereferenceable(8) ptr @_ZNKSt5arrayImLm2EEixEm(ptr noundef nonnull align 8 dereferenceable(16) %0, i64 noundef %1) #0 comdat align 2 {
  %3 = alloca ptr, align 8
  %4 = alloca i64, align 8
  store ptr %0, ptr %3, align 8
  store i64 %1, ptr %4, align 8
  %5 = load ptr, ptr %3, align 8
  %6 = getelementptr inbounds %"struct.std::array", ptr %5, i32 0, i32 0
  %7 = load i64, ptr %4, align 8
  %8 = call noundef nonnull align 8 dereferenceable(8) ptr @_ZNSt14__array_traitsImLm2EE6_S_refERA2_Kmm(ptr noundef nonnull align 8 dereferenceable(16) %6, i64 noundef %7) #15
  ret ptr %8
}

; Function Attrs: mustprogress nounwind uwtable
define linkonce_odr hidden noundef nonnull align 8 dereferenceable(16) ptr @_ZNK8WasmEdge10RefVariant7toArrayEv(ptr noundef nonnull align 16 dereferenceable(16) %0) #0 comdat align 2 {
  %2 = alloca ptr, align 8
  store ptr %0, ptr %2, align 8
  %3 = load ptr, ptr %2, align 8
  %4 = getelementptr inbounds %"struct.WasmEdge::RefVariant", ptr %3, i32 0, i32 0
  ret ptr %4
}

; Function Attrs: mustprogress nounwind uwtable
define linkonce_odr hidden noundef nonnull align 16 dereferenceable(16) ptr @_ZNR8WasmEdge13VariadicUnionIJimlfdonDv2_mDv2_lDv4_jDv4_iDv8_tDv8_sDv16_hDv16_aDv4_fDv2_dNS_10RefVariantENS_10StrVariantEEE3getISB_EERT_v(ptr noundef nonnull align 16 dereferenceable(16) %0) #0 comdat align 2 {
  %2 = alloca ptr, align 8
  store ptr %0, ptr %2, align 8
  %3 = load ptr, ptr %2, align 8
  %4 = call noundef nonnull align 16 dereferenceable(16) ptr @_ZNR8WasmEdge13VariadicUnionIJmlfdonDv2_mDv2_lDv4_jDv4_iDv8_tDv8_sDv16_hDv16_aDv4_fDv2_dNS_10RefVariantENS_10StrVariantEEE3getISB_EERT_v(ptr noundef nonnull align 16 dereferenceable(16) %3) #15
  ret ptr %4
}

; Function Attrs: mustprogress nounwind uwtable
define linkonce_odr hidden void @_ZN5cxx206detail25expected_move_assign_baseIvN8WasmEdge7ErrCodeELb0EEC2Ev(ptr noundef nonnull align 4 dereferenceable(8) %0) unnamed_addr #0 comdat align 2 {
  %2 = alloca ptr, align 8
  store ptr %0, ptr %2, align 8
  %3 = load ptr, ptr %2, align 8
  call void @_ZN5cxx206detail25expected_copy_assign_baseIvN8WasmEdge7ErrCodeELb0EEC2Ev(ptr noundef nonnull align 4 dereferenceable(8) %3) #15
  ret void
}

; Function Attrs: mustprogress nounwind uwtable
define linkonce_odr hidden noundef nonnull align 4 dereferenceable(4) ptr @_ZNR8WasmEdge13VariadicUnionIJjimlfdonDv2_mDv2_lDv4_jDv4_iDv8_tDv8_sDv16_hDv16_aDv4_fDv2_dNS_10RefVariantENS_10StrVariantEEE7emplaceIjJjEEERT_DpOT0_(ptr noundef nonnull align 16 dereferenceable(16) %0, ptr noundef nonnull align 4 dereferenceable(4) %1) #0 comdat align 2 {
  %3 = alloca ptr, align 8
  %4 = alloca ptr, align 8
  store ptr %0, ptr %3, align 8
  store ptr %1, ptr %4, align 8
  %5 = load ptr, ptr %3, align 8
  %6 = load ptr, ptr %4, align 8
  %7 = load i32, ptr %6, align 4
  store i32 %7, ptr %5, align 16
  %8 = call noundef ptr @_ZSt7launderIjEPT_S1_(ptr noundef %5) #15
  ret ptr %8
}

; Function Attrs: mustprogress nounwind uwtable
define linkonce_odr hidden noundef ptr @_ZNK8WasmEdge10RefVariant6getPtrIvEEPT_v(ptr noundef nonnull align 16 dereferenceable(16) %0) #0 comdat align 2 {
  %2 = alloca ptr, align 8
  store ptr %0, ptr %2, align 8
  %3 = load ptr, ptr %2, align 8
  %4 = call noundef nonnull align 8 dereferenceable(16) ptr @_ZNK8WasmEdge10RefVariant7toArrayEv(ptr noundef nonnull align 16 dereferenceable(16) %3) #15
  %5 = call noundef nonnull align 8 dereferenceable(8) ptr @_ZNKSt5arrayImLm2EEixEm(ptr noundef nonnull align 8 dereferenceable(16) %4, i64 noundef 1) #15
  %6 = load i64, ptr %5, align 8
  %7 = inttoptr i64 %6 to ptr
  ret ptr %7
}

; Function Attrs: mustprogress nounwind uwtable
define linkonce_odr hidden noundef nonnull align 16 dereferenceable(16) ptr @_ZNR8WasmEdge13VariadicUnionIJjimlfdonDv2_mDv2_lDv4_jDv4_iDv8_tDv8_sDv16_hDv16_aDv4_fDv2_dNS_10RefVariantENS_10StrVariantEEE3getISB_EERT_v(ptr noundef nonnull align 16 dereferenceable(16) %0) #0 comdat align 2 {
  %2 = alloca ptr, align 8
  store ptr %0, ptr %2, align 8
  %3 = load ptr, ptr %2, align 8
  %4 = call noundef nonnull align 16 dereferenceable(16) ptr @_ZNR8WasmEdge13VariadicUnionIJimlfdonDv2_mDv2_lDv4_jDv4_iDv8_tDv8_sDv16_hDv16_aDv4_fDv2_dNS_10RefVariantENS_10StrVariantEEE3getISB_EERT_v(ptr noundef nonnull align 16 dereferenceable(16) %3) #15
  ret ptr %4
}

; Function Attrs: noreturn nounwind uwtable
define linkonce_odr hidden void @__clang_call_terminate(ptr noundef %0) #3 comdat {
  %2 = call ptr @__cxa_begin_catch(ptr %0) #15
  call void @_ZSt9terminatev() #16
  unreachable
}

; Function Attrs: mustprogress nounwind uwtable
define linkonce_odr hidden void @_ZN5cxx208expectedIvN8WasmEdge7ErrCodeEEC2Ev(ptr noundef nonnull align 4 dereferenceable(8) %0) unnamed_addr #0 comdat align 2 {
  %2 = alloca ptr, align 8
  store ptr %0, ptr %2, align 8
  %3 = load ptr, ptr %2, align 8
  call void @_ZN5cxx206detail25expected_move_assign_baseIvN8WasmEdge7ErrCodeELb0EEC2Ev(ptr noundef nonnull align 4 dereferenceable(8) %3) #15
  ret void
}

; Function Attrs: mustprogress nounwind uwtable
define linkonce_odr hidden noundef nonnull align 4 dereferenceable(4) ptr @_ZNR8WasmEdge7VariantIJjimlfdonDv2_mDv2_lDv4_jDv4_iDv8_tDv8_sDv16_hDv16_aDv4_fDv2_dNS_10RefVariantENS_10StrVariantEEE7emplaceIjJjEEERT_DpOT0_(ptr noundef nonnull align 16 dereferenceable(16) %0, ptr noundef nonnull align 4 dereferenceable(4) %1) #0 comdat align 2 {
  %3 = alloca ptr, align 8
  %4 = alloca ptr, align 8
  store ptr %0, ptr %3, align 8
  store ptr %1, ptr %4, align 8
  %5 = load ptr, ptr %3, align 8
  %6 = getelementptr inbounds %"class.WasmEdge::Variant", ptr %5, i32 0, i32 0
  %7 = load ptr, ptr %4, align 8
  %8 = call noundef nonnull align 4 dereferenceable(4) ptr @_ZNR8WasmEdge13VariadicUnionIJjimlfdonDv2_mDv2_lDv4_jDv4_iDv8_tDv8_sDv16_hDv16_aDv4_fDv2_dNS_10RefVariantENS_10StrVariantEEE7emplaceIjJjEEERT_DpOT0_(ptr noundef nonnull align 16 dereferenceable(16) %6, ptr noundef nonnull align 4 dereferenceable(4) %7) #15
  ret ptr %8
}

; Function Attrs: mustprogress nounwind uwtable
define linkonce_odr hidden noundef zeroext i1 @_ZNK8WasmEdge10RefVariant6isNullEv(ptr noundef nonnull align 16 dereferenceable(16) %0) #0 comdat align 2 {
  %2 = alloca ptr, align 8
  store ptr %0, ptr %2, align 8
  %3 = load ptr, ptr %2, align 8
  %4 = call noundef ptr @_ZNK8WasmEdge10RefVariant6getPtrIvEEPT_v(ptr noundef nonnull align 16 dereferenceable(16) %3) #15
  %5 = icmp eq ptr %4, null
  ret i1 %5
}

; Function Attrs: mustprogress nounwind uwtable
define linkonce_odr hidden noundef nonnull align 16 dereferenceable(16) ptr @_ZNR8WasmEdge7VariantIJjimlfdonDv2_mDv2_lDv4_jDv4_iDv8_tDv8_sDv16_hDv16_aDv4_fDv2_dNS_10RefVariantENS_10StrVariantEEE3getISB_EERT_v(ptr noundef nonnull align 16 dereferenceable(16) %0) #0 comdat align 2 {
  %2 = alloca ptr, align 8
  store ptr %0, ptr %2, align 8
  %3 = load ptr, ptr %2, align 8
  %4 = getelementptr inbounds %"class.WasmEdge::Variant", ptr %3, i32 0, i32 0
  %5 = call noundef nonnull align 16 dereferenceable(16) ptr @_ZNR8WasmEdge13VariadicUnionIJjimlfdonDv2_mDv2_lDv4_jDv4_iDv8_tDv8_sDv16_hDv16_aDv4_fDv2_dNS_10RefVariantENS_10StrVariantEEE3getISB_EERT_v(ptr noundef nonnull align 16 dereferenceable(16) %4) #15
  ret ptr %5
}

; Function Attrs: mustprogress nounwind uwtable
define void @_ZNK8WasmEdge8Executor8Executor14runRefIsNullOpERNS_7VariantIJjimlfdonDv2_mDv2_lDv4_jDv4_iDv8_tDv8_sDv16_hDv16_aDv4_fDv2_dNS_10RefVariantENS_10StrVariantEEEE(ptr dead_on_unwind noalias writable sret(%"class.cxx20::expected") align 4 %0, ptr noundef nonnull align 8 dereferenceable(408) %1, ptr noundef nonnull align 16 dereferenceable(16) %2) #0 align 2 personality ptr @__gxx_personality_v0 {
  %4 = alloca ptr, align 8
  %5 = alloca ptr, align 8
  %6 = alloca ptr, align 8
  %7 = alloca i32, align 4
  store ptr %0, ptr %4, align 8
  store ptr %1, ptr %5, align 8
  store ptr %2, ptr %6, align 8
  %8 = load ptr, ptr %6, align 8
  %9 = load ptr, ptr %6, align 8
  %10 = call noundef nonnull align 16 dereferenceable(16) ptr @_ZNR8WasmEdge7VariantIJjimlfdonDv2_mDv2_lDv4_jDv4_iDv8_tDv8_sDv16_hDv16_aDv4_fDv2_dNS_10RefVariantENS_10StrVariantEEE3getISB_EERT_v(ptr noundef nonnull align 16 dereferenceable(16) %9) #15
  %11 = invoke noundef zeroext i1 @_ZNK8WasmEdge10RefVariant6isNullEv(ptr noundef nonnull align 16 dereferenceable(16) %10)
          to label %12 unwind label %15

12:                                               ; preds = %3
  %13 = select i1 %11, i32 1, i32 0
  store i32 %13, ptr %7, align 4
  %14 = call noundef nonnull align 4 dereferenceable(4) ptr @_ZNR8WasmEdge7VariantIJjimlfdonDv2_mDv2_lDv4_jDv4_iDv8_tDv8_sDv16_hDv16_aDv4_fDv2_dNS_10RefVariantENS_10StrVariantEEE7emplaceIjJjEEERT_DpOT0_(ptr noundef nonnull align 16 dereferenceable(16) %8, ptr noundef nonnull align 4 dereferenceable(4) %7) #15
  call void @llvm.memset.p0.i64(ptr align 4 %0, i8 0, i64 8, i1 false)
  call void @_ZN5cxx208expectedIvN8WasmEdge7ErrCodeEEC2Ev(ptr noundef nonnull align 4 dereferenceable(8) %0) #15
  ret void

15:                                               ; preds = %3
  %16 = landingpad { ptr, i32 }
          catch ptr null
  %17 = extractvalue { ptr, i32 } %16, 0
  call void @__clang_call_terminate(ptr %17) #16
  unreachable
}