; Function Attrs: mustprogress nofree norecurse nosync nounwind willreturn memory(argmem: readwrite) uwtable
define void @_ZNK8WasmEdge8Executor8Executor14runRefIsNullOpERNS_7VariantIJjimlfdonDv2_mDv2_lDv4_jDv4_iDv8_tDv8_sDv16_hDv16_aDv4_fDv2_dNS_10RefVariantENS_10StrVariantEEEE(ptr dead_on_unwind noalias nocapture writable writeonly sret(%"class.cxx20::expected") align 4 %0, ptr nocapture noundef nonnull readnone align 8 dereferenceable(408) %1, ptr nocapture noundef nonnull align 16 dereferenceable(16) %2) local_unnamed_addr #4 align 2 personality ptr @__gxx_personality_v0 {
  %4 = getelementptr inbounds i8, ptr %2, i64 8
  %5 = load i64, ptr %4, align 8
  %6 = icmp eq i64 %5, 0
  %7 = zext i1 %6 to i32
  store i32 %7, ptr %2, align 16
  store i64 1, ptr %0, align 4
  ret void
}